; Function Attrs: mustprogress uwtable
define void @_ZNK10open_spiel6spades11SpadesState12FormatResultB5cxx11Ev(ptr dead_on_unwind noalias writable sret(%"class.std::__cxx11::basic_string") align 8 %0, ptr noundef nonnull align 8 dereferenceable(897) %1) local_unnamed_addr #3 align 2 personality ptr @__gxx_personality_v0 {
  %3 = alloca %"class.std::__cxx11::basic_string", align 8
  %4 = alloca i32, align 4
  %5 = alloca %"class.absl::debian2::AlphaNum", align 8
  %6 = alloca %"class.absl::debian2::AlphaNum", align 8
  %7 = alloca %"class.absl::debian2::AlphaNum", align 8
  %8 = alloca %"class.absl::debian2::AlphaNum", align 8
  %9 = load ptr, ptr %1, align 8
  %10 = getelementptr inbounds i8, ptr %9, i64 88
  %11 = load ptr, ptr %10, align 8
  %12 = tail call noundef zeroext i1 %11(ptr noundef nonnull align 8 dereferenceable(897) %1)
  br i1 %12, label %17, label %13

13:                                               ; preds = %2
  store i32 250, ptr %4, align 4
  call void @_ZN10open_spiel8internal11SpielStrCatIJRA132_KcRA2_S2_iRA13_S2_S8_S6_EEENSt7__cxx1112basic_stringIcSt11char_traitsIcESaIcEEEDpOT_(ptr dead_on_unwind nonnull writable sret(%"class.std::__cxx11::basic_string") align 8 %3, ptr noundef nonnull align 1 dereferenceable(132) @.str.11, ptr noundef nonnull align 1 dereferenceable(2) @.str.12, ptr noundef nonnull align 4 dereferenceable(4) %4, ptr noundef nonnull align 1 dereferenceable(13) @.str.35, ptr noundef nonnull align 1 dereferenceable(13) @.str.36, ptr noundef nonnull align 1 dereferenceable(2) @.str.37)
  invoke void @_ZN10open_spiel15SpielFatalErrorERKNSt7__cxx1112basic_stringIcSt11char_traitsIcESaIcEEE(ptr noundef nonnull align 8 dereferenceable(32) %3) #24
          to label %14 unwind label %15

14:                                               ; preds = %13
  unreachable

15:                                               ; preds = %13
  %16 = landingpad { ptr, i32 }
          cleanup
  br label %41

17:                                               ; preds = %2
  tail call void @_ZNSt7__cxx1112basic_stringIcSt11char_traitsIcESaIcEEC1Ev(ptr noundef nonnull align 8 dereferenceable(32) %0) #25
  store ptr @.str.38, ptr %5, align 8
  %18 = getelementptr inbounds nuw i8, ptr %5, i64 8
  store i64 12, ptr %18, align 8
  %19 = getelementptr inbounds nuw i8, ptr %1, i64 400
  %20 = load ptr, ptr %19, align 8
  %21 = load double, ptr %20, align 8
  %22 = getelementptr inbounds nuw i8, ptr %6, i64 16
  %23 = invoke noundef i64 @_ZN4absl7debian216numbers_internal17SixDigitsToBufferEdPc(double noundef %21, ptr noundef nonnull %22)
          to label %.noexc unwind label %38

.noexc:                                           ; preds = %17
  store ptr %22, ptr %6, align 8
  %24 = icmp sgt i64 %23, -1
  br i1 %24, label %26, label %25

25:                                               ; preds = %.noexc
  call void @llvm.trap()
  unreachable

26:                                               ; preds = %.noexc
  %27 = getelementptr inbounds nuw i8, ptr %6, i64 8
  store i64 %23, ptr %27, align 8
  store ptr @.str.39, ptr %7, align 8
  %28 = getelementptr inbounds nuw i8, ptr %7, i64 8
  store i64 5, ptr %28, align 8
  %29 = load ptr, ptr %19, align 8
  %30 = getelementptr inbounds i8, ptr %29, i64 8
  %31 = load double, ptr %30, align 8
  %32 = getelementptr inbounds nuw i8, ptr %8, i64 16
  %33 = invoke noundef i64 @_ZN4absl7debian216numbers_internal17SixDigitsToBufferEdPc(double noundef %31, ptr noundef nonnull %32)
          to label %.noexc6 unwind label %38

.noexc6:                                          ; preds = %26
  store ptr %32, ptr %8, align 8
  %34 = icmp sgt i64 %33, -1
  br i1 %34, label %36, label %35

35:                                               ; preds = %.noexc6
  call void @llvm.trap()
  unreachable

36:                                               ; preds = %.noexc6
  %37 = getelementptr inbounds nuw i8, ptr %8, i64 8
  store i64 %33, ptr %37, align 8
  invoke void @_ZN4absl7debian29StrAppendEPNSt7__cxx1112basic_stringIcSt11char_traitsIcESaIcEEERKNS0_8AlphaNumESA_SA_SA_(ptr noundef nonnull %0, ptr noundef nonnull align 8 dereferenceable(48) %5, ptr noundef nonnull align 8 dereferenceable(48) %6, ptr noundef nonnull align 8 dereferenceable(48) %7, ptr noundef nonnull align 8 dereferenceable(48) %8)
          to label %40 unwind label %38

38:                                               ; preds = %26, %17, %36
  %39 = landingpad { ptr, i32 }
          cleanup
  br label %41

40:                                               ; preds = %36
  ret void

41:                                               ; preds = %38, %15
  %.sink = phi ptr [ %0, %38 ], [ %3, %15 ]
  %.pn = phi { ptr, i32 } [ %39, %38 ], [ %16, %15 ]
  call void @_ZNSt7__cxx1112basic_stringIcSt11char_traitsIcESaIcEED1Ev(ptr noundef nonnull align 8 dereferenceable(32) %.sink) #25
  resume { ptr, i32 } %.pn
}